target datalayout = "e-m:e-p270:32:32-p271:32:32-p272:64:64-i64:64-i128:128-f80:128-n8:16:32:64-S128"
target triple = "x86_64-pc-linux-gnu"

%struct.Node = type { i32 }
%struct.SubLink = type { %struct.Expr, i32, i32, ptr, ptr, ptr, i32 }
%struct.Expr = type { i32 }

; Function Attrs: nounwind uwtable
define internal zeroext i1 @ScanQueryWalker(ptr noundef %0, ptr noundef %1) #0 {
  %3 = alloca i1, align 1
  %4 = alloca ptr, align 8
  %5 = alloca ptr, align 8
  %6 = alloca ptr, align 8
  store ptr %0, ptr %4, align 8
  store ptr %1, ptr %5, align 8
  %7 = load ptr, ptr %4, align 8
  %8 = icmp eq ptr %7, null
  br i1 %8, label %9, label %10

9:                                                ; preds = %2
  store i1 false, ptr %3, align 1
  br label %27

10:                                               ; preds = %2
  %11 = load ptr, ptr %4, align 8
  %12 = getelementptr inbounds nuw %struct.Node, ptr %11, i32 0, i32 0
  %13 = load i32, ptr %12, align 4
  %14 = icmp eq i32 %13, 22
  br i1 %14, label %15, label %23

15:                                               ; preds = %10
  call void @llvm.lifetime.start.p0(i64 8, ptr %6) #8
  %16 = load ptr, ptr %4, align 8
  store ptr %16, ptr %6, align 8
  %17 = load ptr, ptr %6, align 8
  %18 = getelementptr inbounds nuw %struct.SubLink, ptr %17, i32 0, i32 5
  %19 = load ptr, ptr %18, align 8
  %20 = load ptr, ptr %5, align 8
  %21 = load i8, ptr %20, align 1, !range !4, !noundef !5
  %22 = trunc i8 %21 to i1
  call void @ScanQueryForLocks(ptr noundef %19, i1 noundef zeroext %22)
  call void @llvm.lifetime.end.p0(i64 8, ptr %6) #8
  br label %23

23:                                               ; preds = %15, %10
  %24 = load ptr, ptr %4, align 8
  %25 = load ptr, ptr %5, align 8
  %26 = call zeroext i1 @expression_tree_walker_impl(ptr noundef %24, ptr noundef @ScanQueryWalker, ptr noundef %25)
  store i1 %26, ptr %3, align 1
  br label %27

27:                                               ; preds = %23, %9
  %28 = load i1, ptr %3, align 1
  ret i1 %28
}